; Function Attrs: nounwind uwtable
define internal fastcc i32 @session_resume_deferred_stream_item(ptr noundef %0, ptr noundef %1, i8 noundef zeroext range(i8 4, 9) %2) unnamed_addr #1 {
  %4 = tail call i32 @nghttp2_stream_resume_deferred_item(ptr noundef %1, i8 noundef zeroext %2) #20
  %.not = icmp eq i32 %4, 0
  br i1 %.not, label %5, label %session_ob_data_push.exit

5:                                                ; preds = %3
  %6 = getelementptr inbounds nuw i8, ptr %1, i64 216
  %7 = load i8, ptr %6, align 8, !tbaa !41
  %8 = and i8 %7, 28
  %or.cond = icmp eq i8 %8, 16
  br i1 %or.cond, label %9, label %session_ob_data_push.exit

9:                                                ; preds = %5
  %10 = getelementptr inbounds nuw i8, ptr %1, i64 220
  %11 = load i8, ptr %10, align 4, !tbaa !138
  %12 = and i8 %11, 127
  %.not.i = icmp sgt i8 %11, -1
  %13 = getelementptr inbounds nuw i8, ptr %0, i64 328
  %14 = zext nneg i8 %12 to i64
  %15 = getelementptr inbounds nuw [8 x %struct.anon], ptr %13, i64 0, i64 %14
  %16 = tail call i32 @nghttp2_pq_empty(ptr noundef nonnull %15) #20
  %.not.i.i = icmp eq i32 %16, 0
  br i1 %.not.i.i, label %17, label %pq_get_first_cycle.exit.i

17:                                               ; preds = %9
  %18 = tail call ptr @nghttp2_pq_top(ptr noundef nonnull %15) #20
  %19 = getelementptr inbounds nuw i8, ptr %18, i64 72
  %20 = load i64, ptr %19, align 8, !tbaa !139
  br label %pq_get_first_cycle.exit.i

pq_get_first_cycle.exit.i:                        ; preds = %17, %9
  %.0.i.i = phi i64 [ %20, %17 ], [ 0, %9 ]
  %21 = getelementptr inbounds nuw i8, ptr %1, i64 72
  store i64 %.0.i.i, ptr %21, align 8, !tbaa !139
  br i1 %.not.i, label %26, label %22

22:                                               ; preds = %pq_get_first_cycle.exit.i
  %23 = getelementptr inbounds nuw i8, ptr %1, i64 160
  %24 = load i64, ptr %23, align 8, !tbaa !140
  %25 = add i64 %24, %.0.i.i
  store i64 %25, ptr %21, align 8, !tbaa !139
  br label %26

26:                                               ; preds = %22, %pq_get_first_cycle.exit.i
  %27 = tail call i32 @nghttp2_pq_push(ptr noundef nonnull %15, ptr noundef nonnull %1) #20
  %.not15.i = icmp eq i32 %27, 0
  br i1 %.not15.i, label %28, label %session_ob_data_push.exit

28:                                               ; preds = %26
  %29 = getelementptr inbounds nuw i8, ptr %1, i64 218
  store i8 1, ptr %29, align 2, !tbaa !141
  br label %session_ob_data_push.exit

session_ob_data_push.exit:                        ; preds = %28, %26, %5, %3
  %.0 = phi i32 [ %4, %3 ], [ 0, %5 ], [ %27, %26 ], [ 0, %28 ]
  ret i32 %.0
}